target datalayout = "e-m:e-p270:32:32-p271:32:32-p272:64:64-i64:64-i128:128-f80:128-n8:16:32:64-S128"
target triple = "x86_64-pc-linux-gnu"

%struct.rax = type { ptr, i64, i64, [0 x ptr] }

; Function Attrs: nounwind uwtable
define dso_local ptr @raxGetData(ptr noundef %0) #0 {
  %2 = alloca ptr, align 8
  %3 = alloca ptr, align 8
  %4 = alloca ptr, align 8
  %5 = alloca ptr, align 8
  store ptr %0, ptr %3, align 8, !tbaa !11
  %6 = load ptr, ptr %3, align 8, !tbaa !11
  %7 = load i32, ptr %6, align 4
  %8 = lshr i32 %7, 1
  %9 = and i32 %8, 1
  %10 = icmp ne i32 %9, 0
  br i1 %10, label %11, label %12

11:                                               ; preds = %1
  store ptr null, ptr %2, align 8
  br label %64

12:                                               ; preds = %1
  call void @llvm.lifetime.start.p0(i64 8, ptr %4) #13
  %13 = load ptr, ptr %3, align 8, !tbaa !11
  %14 = load ptr, ptr %3, align 8, !tbaa !11
  %15 = load i32, ptr %14, align 4
  %16 = lshr i32 %15, 3
  %17 = zext i32 %16 to i64
  %18 = add i64 4, %17
  %19 = load ptr, ptr %3, align 8, !tbaa !11
  %20 = load i32, ptr %19, align 4
  %21 = lshr i32 %20, 3
  %22 = add nsw i32 %21, 4
  %23 = sext i32 %22 to i64
  %24 = urem i64 %23, 8
  %25 = sub i64 8, %24
  %26 = and i64 %25, 7
  %27 = add i64 %18, %26
  %28 = load ptr, ptr %3, align 8, !tbaa !11
  %29 = load i32, ptr %28, align 4
  %30 = lshr i32 %29, 2
  %31 = and i32 %30, 1
  %32 = icmp ne i32 %31, 0
  br i1 %32, label %33, label %34

33:                                               ; preds = %12
  br label %40

34:                                               ; preds = %12
  %35 = load ptr, ptr %3, align 8, !tbaa !11
  %36 = load i32, ptr %35, align 4
  %37 = lshr i32 %36, 3
  %38 = zext i32 %37 to i64
  %39 = mul i64 8, %38
  br label %40

40:                                               ; preds = %34, %33
  %41 = phi i64 [ 8, %33 ], [ %39, %34 ]
  %42 = add i64 %27, %41
  %43 = load ptr, ptr %3, align 8, !tbaa !11
  %44 = load i32, ptr %43, align 4
  %45 = and i32 %44, 1
  %46 = icmp ne i32 %45, 0
  br i1 %46, label %47, label %54

47:                                               ; preds = %40
  %48 = load ptr, ptr %3, align 8, !tbaa !11
  %49 = load i32, ptr %48, align 4
  %50 = lshr i32 %49, 1
  %51 = and i32 %50, 1
  %52 = icmp ne i32 %51, 0
  %53 = xor i1 %52, true
  br label %54

54:                                               ; preds = %47, %40
  %55 = phi i1 [ false, %40 ], [ %53, %47 ]
  %56 = zext i1 %55 to i32
  %57 = sext i32 %56 to i64
  %58 = mul i64 %57, 8
  %59 = add i64 %42, %58
  %60 = getelementptr inbounds nuw i8, ptr %13, i64 %59
  %61 = getelementptr inbounds i8, ptr %60, i64 -8
  store ptr %61, ptr %4, align 8, !tbaa !16
  call void @llvm.lifetime.start.p0(i64 8, ptr %5) #13
  %62 = load ptr, ptr %4, align 8, !tbaa !16
  call void @llvm.memcpy.p0.p0.i64(ptr align 8 %5, ptr align 8 %62, i64 8, i1 false)
  %63 = load ptr, ptr %5, align 8, !tbaa !16
  store ptr %63, ptr %2, align 8
  call void @llvm.lifetime.end.p0(i64 8, ptr %5) #13
  call void @llvm.lifetime.end.p0(i64 8, ptr %4) #13
  br label %64

64:                                               ; preds = %54, %11
  %65 = load ptr, ptr %2, align 8
  ret ptr %65
}

; Function Attrs: nounwind uwtable
define dso_local void @raxRecursiveFree(ptr noundef %0, ptr noundef %1, ptr noundef %2) #0 {
  %4 = alloca ptr, align 8
  %5 = alloca ptr, align 8
  %6 = alloca ptr, align 8
  %7 = alloca i32, align 4
  %8 = alloca ptr, align 8
  %9 = alloca ptr, align 8
  store ptr %0, ptr %4, align 8, !tbaa !14
  store ptr %1, ptr %5, align 8, !tbaa !11
  store ptr %2, ptr %6, align 8, !tbaa !16
  call void @llvm.lifetime.start.p0(i64 4, ptr %7) #13
  %10 = load ptr, ptr %5, align 8, !tbaa !11
  %11 = load i32, ptr %10, align 4
  %12 = lshr i32 %11, 2
  %13 = and i32 %12, 1
  %14 = icmp ne i32 %13, 0
  br i1 %14, label %15, label %16

15:                                               ; preds = %3
  br label %20

16:                                               ; preds = %3
  %17 = load ptr, ptr %5, align 8, !tbaa !11
  %18 = load i32, ptr %17, align 4
  %19 = lshr i32 %18, 3
  br label %20

20:                                               ; preds = %16, %15
  %21 = phi i32 [ 1, %15 ], [ %19, %16 ]
  store i32 %21, ptr %7, align 4, !tbaa !5
  call void @llvm.lifetime.start.p0(i64 8, ptr %8) #13
  %22 = load ptr, ptr %5, align 8, !tbaa !11
  %23 = load ptr, ptr %5, align 8, !tbaa !11
  %24 = load i32, ptr %23, align 4
  %25 = lshr i32 %24, 3
  %26 = zext i32 %25 to i64
  %27 = add i64 4, %26
  %28 = load ptr, ptr %5, align 8, !tbaa !11
  %29 = load i32, ptr %28, align 4
  %30 = lshr i32 %29, 3
  %31 = add nsw i32 %30, 4
  %32 = sext i32 %31 to i64
  %33 = urem i64 %32, 8
  %34 = sub i64 8, %33
  %35 = and i64 %34, 7
  %36 = add i64 %27, %35
  %37 = load ptr, ptr %5, align 8, !tbaa !11
  %38 = load i32, ptr %37, align 4
  %39 = lshr i32 %38, 2
  %40 = and i32 %39, 1
  %41 = icmp ne i32 %40, 0
  br i1 %41, label %42, label %43

42:                                               ; preds = %20
  br label %49

43:                                               ; preds = %20
  %44 = load ptr, ptr %5, align 8, !tbaa !11
  %45 = load i32, ptr %44, align 4
  %46 = lshr i32 %45, 3
  %47 = zext i32 %46 to i64
  %48 = mul i64 8, %47
  br label %49

49:                                               ; preds = %43, %42
  %50 = phi i64 [ 8, %42 ], [ %48, %43 ]
  %51 = add i64 %36, %50
  %52 = load ptr, ptr %5, align 8, !tbaa !11
  %53 = load i32, ptr %52, align 4
  %54 = and i32 %53, 1
  %55 = icmp ne i32 %54, 0
  br i1 %55, label %56, label %63

56:                                               ; preds = %49
  %57 = load ptr, ptr %5, align 8, !tbaa !11
  %58 = load i32, ptr %57, align 4
  %59 = lshr i32 %58, 1
  %60 = and i32 %59, 1
  %61 = icmp ne i32 %60, 0
  %62 = xor i1 %61, true
  br label %63

63:                                               ; preds = %56, %49
  %64 = phi i1 [ false, %49 ], [ %62, %56 ]
  %65 = zext i1 %64 to i32
  %66 = sext i32 %65 to i64
  %67 = mul i64 %66, 8
  %68 = add i64 %51, %67
  %69 = getelementptr inbounds nuw i8, ptr %22, i64 %68
  %70 = getelementptr inbounds i8, ptr %69, i64 -8
  %71 = load ptr, ptr %5, align 8, !tbaa !11
  %72 = load i32, ptr %71, align 4
  %73 = and i32 %72, 1
  %74 = icmp ne i32 %73, 0
  br i1 %74, label %75, label %82

75:                                               ; preds = %63
  %76 = load ptr, ptr %5, align 8, !tbaa !11
  %77 = load i32, ptr %76, align 4
  %78 = lshr i32 %77, 1
  %79 = and i32 %78, 1
  %80 = icmp ne i32 %79, 0
  %81 = xor i1 %80, true
  br label %82

82:                                               ; preds = %75, %63
  %83 = phi i1 [ false, %63 ], [ %81, %75 ]
  %84 = select i1 %83, i64 8, i64 0
  %85 = sub i64 0, %84
  %86 = getelementptr inbounds i8, ptr %70, i64 %85
  store ptr %86, ptr %8, align 8, !tbaa !18
  br label %87

87:                                               ; preds = %91, %82
  %88 = load i32, ptr %7, align 4, !tbaa !5
  %89 = add nsw i32 %88, -1
  store i32 %89, ptr %7, align 4, !tbaa !5
  %90 = icmp ne i32 %88, 0
  br i1 %90, label %91, label %98

91:                                               ; preds = %87
  call void @llvm.lifetime.start.p0(i64 8, ptr %9) #13
  %92 = load ptr, ptr %8, align 8, !tbaa !18
  call void @llvm.memcpy.p0.p0.i64(ptr align 8 %9, ptr align 8 %92, i64 8, i1 false)
  %93 = load ptr, ptr %4, align 8, !tbaa !14
  %94 = load ptr, ptr %9, align 8, !tbaa !11
  %95 = load ptr, ptr %6, align 8, !tbaa !16
  call void @raxRecursiveFree(ptr noundef %93, ptr noundef %94, ptr noundef %95)
  %96 = load ptr, ptr %8, align 8, !tbaa !18
  %97 = getelementptr inbounds ptr, ptr %96, i32 -1
  store ptr %97, ptr %8, align 8, !tbaa !18
  call void @llvm.lifetime.end.p0(i64 8, ptr %9) #13
  br label %87, !llvm.loop !42

98:                                               ; preds = %87
  %99 = load ptr, ptr %6, align 8, !tbaa !16
  %100 = icmp ne ptr %99, null
  br i1 %100, label %101, label %116

101:                                              ; preds = %98
  %102 = load ptr, ptr %5, align 8, !tbaa !11
  %103 = load i32, ptr %102, align 4
  %104 = and i32 %103, 1
  %105 = icmp ne i32 %104, 0
  br i1 %105, label %106, label %116

106:                                              ; preds = %101
  %107 = load ptr, ptr %5, align 8, !tbaa !11
  %108 = load i32, ptr %107, align 4
  %109 = lshr i32 %108, 1
  %110 = and i32 %109, 1
  %111 = icmp ne i32 %110, 0
  br i1 %111, label %116, label %112

112:                                              ; preds = %106
  %113 = load ptr, ptr %6, align 8, !tbaa !16
  %114 = load ptr, ptr %5, align 8, !tbaa !11
  %115 = call ptr @raxGetData(ptr noundef %114)
  call void %113(ptr noundef %115)
  br label %116

116:                                              ; preds = %112, %106, %101, %98
  %117 = load ptr, ptr %5, align 8, !tbaa !11
  call void @zfree(ptr noundef %117)
  %118 = load ptr, ptr %4, align 8, !tbaa !14
  %119 = getelementptr inbounds nuw %struct.rax, ptr %118, i32 0, i32 2
  %120 = load i64, ptr %119, align 8, !tbaa !9
  %121 = add i64 %120, -1
  store i64 %121, ptr %119, align 8, !tbaa !9
  call void @llvm.lifetime.end.p0(i64 8, ptr %8) #13
  call void @llvm.lifetime.end.p0(i64 4, ptr %7) #13
  ret void
}