; Function Attrs: nounwind uwtable
define dso_local void @raxRecursiveFree(ptr noundef captures(none) %0, ptr noundef %1, ptr noundef captures(address_is_null) %2) local_unnamed_addr #1 {
  %4 = load i32, ptr %1, align 4
  %5 = and i32 %4, 4
  %.not = icmp eq i32 %5, 0
  %6 = lshr i32 %4, 3
  %spec.select = select i1 %.not, i32 %6, i32 1
  %.not3034 = icmp eq i32 %spec.select, 0
  br i1 %.not3034, label %select.unfold._crit_edge, label %select.unfold.preheader

select.unfold.preheader:                          ; preds = %3
  %7 = zext nneg i32 %6 to i64
  %8 = getelementptr inbounds nuw i8, ptr %1, i64 %7
  %9 = getelementptr inbounds nuw i8, ptr %8, i64 4
  %10 = xor i32 %6, 3
  %.neg = add nuw nsw i32 %10, 1
  %11 = and i32 %.neg, 7
  %12 = zext nneg i32 %11 to i64
  %13 = getelementptr inbounds nuw i8, ptr %9, i64 %12
  %14 = shl nuw nsw i64 %7, 3
  %15 = select i1 %.not, i64 %14, i64 8
  %16 = getelementptr inbounds nuw i8, ptr %13, i64 %15
  %17 = and i32 %4, 1
  %.not26 = icmp eq i32 %17, 0
  %18 = shl i32 %4, 2
  %19 = and i32 %18, 8
  %20 = xor i32 %19, 8
  %narrow = select i1 %.not26, i32 0, i32 %20
  %21 = zext nneg i32 %narrow to i64
  %22 = getelementptr inbounds nuw i8, ptr %16, i64 %21
  %23 = getelementptr inbounds i8, ptr %22, i64 -8
  %24 = sub nsw i64 0, %21
  %25 = getelementptr inbounds i8, ptr %23, i64 %24
  br label %select.unfold

select.unfold:                                    ; preds = %select.unfold.preheader, %select.unfold
  %.036 = phi i32 [ %26, %select.unfold ], [ %spec.select, %select.unfold.preheader ]
  %.02335 = phi ptr [ %27, %select.unfold ], [ %25, %select.unfold.preheader ]
  %26 = add nsw i32 %.036, -1
  %.0.copyload = load ptr, ptr %.02335, align 8
  tail call void @raxRecursiveFree(ptr noundef %0, ptr noundef %.0.copyload, ptr noundef %2)
  %27 = getelementptr inbounds i8, ptr %.02335, i64 -8
  %.not30 = icmp eq i32 %26, 0
  br i1 %.not30, label %select.unfold._crit_edge, label %select.unfold, !llvm.loop !30

select.unfold._crit_edge:                         ; preds = %select.unfold, %3
  %.not31 = icmp eq ptr %2, null
  br i1 %.not31, label %42, label %28

28:                                               ; preds = %select.unfold._crit_edge
  %29 = load i32, ptr %1, align 4
  %30 = and i32 %29, 3
  %or.cond = icmp eq i32 %30, 1
  br i1 %or.cond, label %raxGetData.exit, label %42

raxGetData.exit:                                  ; preds = %28
  %31 = lshr i32 %29, 3
  %32 = zext nneg i32 %31 to i64
  %33 = xor i32 %31, 3
  %.neg.i = add nuw nsw i32 %33, 1
  %34 = and i32 %.neg.i, 7
  %35 = zext nneg i32 %34 to i64
  %36 = and i32 %29, 4
  %.not11.i = icmp eq i32 %36, 0
  %37 = shl nuw nsw i64 %32, 3
  %spec.select.i = select i1 %.not11.i, i64 %37, i64 8
  %38 = getelementptr inbounds nuw i8, ptr %1, i64 %32
  %39 = getelementptr inbounds nuw i8, ptr %38, i64 4
  %40 = getelementptr inbounds nuw i8, ptr %39, i64 %35
  %41 = getelementptr inbounds nuw i8, ptr %40, i64 %spec.select.i
  %.0.copyload.i = load ptr, ptr %41, align 8
  tail call void %2(ptr noundef %.0.copyload.i) #26
  br label %42

42:                                               ; preds = %raxGetData.exit, %28, %select.unfold._crit_edge
  tail call void @zfree(ptr noundef nonnull %1) #26
  %43 = getelementptr inbounds nuw i8, ptr %0, i64 16
  %44 = load i64, ptr %43, align 8, !tbaa !9
  %45 = add i64 %44, -1
  store i64 %45, ptr %43, align 8, !tbaa !9
  ret void
}